target datalayout = "e-m:e-p270:32:32-p271:32:32-p272:64:64-i64:64-i128:128-f80:128-n8:16:32:64-S128"
target triple = "x86_64-pc-linux-gnu"

; Function Attrs: alwaysinline nounwind uwtable
define internal void @pred_planar_8(ptr noundef %0, ptr noundef %1, ptr noundef %2, i64 noundef %3, i32 noundef %4) #1 {
  %6 = alloca ptr, align 8
  %7 = alloca ptr, align 8
  %8 = alloca ptr, align 8
  %9 = alloca i64, align 8
  %10 = alloca i32, align 4
  %11 = alloca i32, align 4
  %12 = alloca i32, align 4
  %13 = alloca ptr, align 8
  %14 = alloca ptr, align 8
  %15 = alloca ptr, align 8
  %16 = alloca i32, align 4
  store ptr %0, ptr %6, align 8, !tbaa !18
  store ptr %1, ptr %7, align 8, !tbaa !18
  store ptr %2, ptr %8, align 8, !tbaa !18
  store i64 %3, ptr %9, align 8, !tbaa !20
  store i32 %4, ptr %10, align 4, !tbaa !9
  call void @llvm.lifetime.start.p0(i64 4, ptr %11) #6
  call void @llvm.lifetime.start.p0(i64 4, ptr %12) #6
  call void @llvm.lifetime.start.p0(i64 8, ptr %13) #6
  %17 = load ptr, ptr %6, align 8, !tbaa !18
  store ptr %17, ptr %13, align 8, !tbaa !18
  call void @llvm.lifetime.start.p0(i64 8, ptr %14) #6
  %18 = load ptr, ptr %7, align 8, !tbaa !18
  store ptr %18, ptr %14, align 8, !tbaa !18
  call void @llvm.lifetime.start.p0(i64 8, ptr %15) #6
  %19 = load ptr, ptr %8, align 8, !tbaa !18
  store ptr %19, ptr %15, align 8, !tbaa !18
  call void @llvm.lifetime.start.p0(i64 4, ptr %16) #6
  %20 = load i32, ptr %10, align 4, !tbaa !9
  %21 = shl i32 1, %20
  store i32 %21, ptr %16, align 4, !tbaa !9
  store i32 0, ptr %12, align 4, !tbaa !9
  br label %22

22:                                               ; preds = %94, %5
  %23 = load i32, ptr %12, align 4, !tbaa !9
  %24 = load i32, ptr %16, align 4, !tbaa !9
  %25 = icmp slt i32 %23, %24
  br i1 %25, label %26, label %97

26:                                               ; preds = %22
  store i32 0, ptr %11, align 4, !tbaa !9
  br label %27

27:                                               ; preds = %90, %26
  %28 = load i32, ptr %11, align 4, !tbaa !9
  %29 = load i32, ptr %16, align 4, !tbaa !9
  %30 = icmp slt i32 %28, %29
  br i1 %30, label %31, label %93

31:                                               ; preds = %27
  %32 = load i32, ptr %16, align 4, !tbaa !9
  %33 = sub nsw i32 %32, 1
  %34 = load i32, ptr %11, align 4, !tbaa !9
  %35 = sub nsw i32 %33, %34
  %36 = load ptr, ptr %15, align 8, !tbaa !18
  %37 = load i32, ptr %12, align 4, !tbaa !9
  %38 = sext i32 %37 to i64
  %39 = getelementptr inbounds i8, ptr %36, i64 %38
  %40 = load i8, ptr %39, align 1, !tbaa !28
  %41 = zext i8 %40 to i32
  %42 = mul nsw i32 %35, %41
  %43 = load i32, ptr %11, align 4, !tbaa !9
  %44 = add nsw i32 %43, 1
  %45 = load ptr, ptr %14, align 8, !tbaa !18
  %46 = load i32, ptr %16, align 4, !tbaa !9
  %47 = sext i32 %46 to i64
  %48 = getelementptr inbounds i8, ptr %45, i64 %47
  %49 = load i8, ptr %48, align 1, !tbaa !28
  %50 = zext i8 %49 to i32
  %51 = mul nsw i32 %44, %50
  %52 = add nsw i32 %42, %51
  %53 = load i32, ptr %16, align 4, !tbaa !9
  %54 = sub nsw i32 %53, 1
  %55 = load i32, ptr %12, align 4, !tbaa !9
  %56 = sub nsw i32 %54, %55
  %57 = load ptr, ptr %14, align 8, !tbaa !18
  %58 = load i32, ptr %11, align 4, !tbaa !9
  %59 = sext i32 %58 to i64
  %60 = getelementptr inbounds i8, ptr %57, i64 %59
  %61 = load i8, ptr %60, align 1, !tbaa !28
  %62 = zext i8 %61 to i32
  %63 = mul nsw i32 %56, %62
  %64 = add nsw i32 %52, %63
  %65 = load i32, ptr %12, align 4, !tbaa !9
  %66 = add nsw i32 %65, 1
  %67 = load ptr, ptr %15, align 8, !tbaa !18
  %68 = load i32, ptr %16, align 4, !tbaa !9
  %69 = sext i32 %68 to i64
  %70 = getelementptr inbounds i8, ptr %67, i64 %69
  %71 = load i8, ptr %70, align 1, !tbaa !28
  %72 = zext i8 %71 to i32
  %73 = mul nsw i32 %66, %72
  %74 = add nsw i32 %64, %73
  %75 = load i32, ptr %16, align 4, !tbaa !9
  %76 = add nsw i32 %74, %75
  %77 = load i32, ptr %10, align 4, !tbaa !9
  %78 = add nsw i32 %77, 1
  %79 = ashr i32 %76, %78
  %80 = trunc i32 %79 to i8
  %81 = load ptr, ptr %13, align 8, !tbaa !18
  %82 = load i32, ptr %11, align 4, !tbaa !9
  %83 = sext i32 %82 to i64
  %84 = load i64, ptr %9, align 8, !tbaa !20
  %85 = load i32, ptr %12, align 4, !tbaa !9
  %86 = sext i32 %85 to i64
  %87 = mul nsw i64 %84, %86
  %88 = add nsw i64 %83, %87
  %89 = getelementptr inbounds i8, ptr %81, i64 %88
  store i8 %80, ptr %89, align 1, !tbaa !28
  br label %90

90:                                               ; preds = %31
  %91 = load i32, ptr %11, align 4, !tbaa !9
  %92 = add nsw i32 %91, 1
  store i32 %92, ptr %11, align 4, !tbaa !9
  br label %27, !llvm.loop !334

93:                                               ; preds = %27
  br label %94

94:                                               ; preds = %93
  %95 = load i32, ptr %12, align 4, !tbaa !9
  %96 = add nsw i32 %95, 1
  store i32 %96, ptr %12, align 4, !tbaa !9
  br label %22, !llvm.loop !335

97:                                               ; preds = %22
  call void @llvm.lifetime.end.p0(i64 4, ptr %16) #6
  call void @llvm.lifetime.end.p0(i64 8, ptr %15) #6
  call void @llvm.lifetime.end.p0(i64 8, ptr %14) #6
  call void @llvm.lifetime.end.p0(i64 8, ptr %13) #6
  call void @llvm.lifetime.end.p0(i64 4, ptr %12) #6
  call void @llvm.lifetime.end.p0(i64 4, ptr %11) #6
  ret void
}

; Function Attrs: nounwind uwtable
define internal void @pred_planar_2_8(ptr noundef %0, ptr noundef %1, ptr noundef %2, i64 noundef %3) #0 {
  %5 = alloca ptr, align 8
  %6 = alloca ptr, align 8
  %7 = alloca ptr, align 8
  %8 = alloca i64, align 8
  store ptr %0, ptr %5, align 8, !tbaa !18
  store ptr %1, ptr %6, align 8, !tbaa !18
  store ptr %2, ptr %7, align 8, !tbaa !18
  store i64 %3, ptr %8, align 8, !tbaa !20
  %9 = load ptr, ptr %5, align 8, !tbaa !18
  %10 = load ptr, ptr %6, align 8, !tbaa !18
  %11 = load ptr, ptr %7, align 8, !tbaa !18
  %12 = load i64, ptr %8, align 8, !tbaa !20
  call void @pred_planar_8(ptr noundef %9, ptr noundef %10, ptr noundef %11, i64 noundef %12, i32 noundef 4)
  ret void
}